target datalayout = "e-m:e-p270:32:32-p271:32:32-p272:64:64-i64:64-i128:128-f80:128-n8:16:32:64-S128"
target triple = "x86_64-pc-linux-gnu"

%struct.curve448_scalar_s = type { [7 x i64] }

@ossl_curve448_scalar_one = constant [1 x %struct.curve448_scalar_s] [%struct.curve448_scalar_s { [7 x i64] [i64 1, i64 0, i64 0, i64 0, i64 0, i64 0, i64 0] }], align 16
@sc_r2 = internal constant [1 x %struct.curve448_scalar_s] [%struct.curve448_scalar_s { [7 x i64] [i64 -2066146901595808928, i64 8859473595851707865, i64 965703414319814745, i64 -5902020696520468424, i64 1917620071967259716, i64 2329131455307870383, i64 3747743906366994217] }], align 16
@sc_p = internal constant [1 x %struct.curve448_scalar_s] [%struct.curve448_scalar_s { [7 x i64] [i64 2556006723728458995, i64 2408513697996967765, i64 -4301259484579875184, i64 -2201345047, i64 -1, i64 -1, i64 4611686018427387903] }], align 16

; Function Attrs: inlinehint nounwind uwtable
define internal i64 @constant_time_msb_64(i64 noundef %0) #2 {
  %2 = alloca i64, align 8
  store i64 %0, ptr %2, align 8, !tbaa !8
  %3 = load i64, ptr %2, align 8, !tbaa !8
  %4 = lshr i64 %3, 63
  %5 = sub i64 0, %4
  ret i64 %5
}

; Function Attrs: inlinehint nounwind uwtable
define internal i32 @c448_succeed_if(i64 noundef %0) #2 {
  %2 = alloca i64, align 8
  store i64 %0, ptr %2, align 8, !tbaa !8
  %3 = load i64, ptr %2, align 8, !tbaa !8
  %4 = trunc i64 %3 to i32
  ret i32 %4
}

; Function Attrs: inlinehint nounwind uwtable
define internal i64 @constant_time_is_zero_64(i64 noundef %0) #2 {
  %2 = alloca i64, align 8
  store i64 %0, ptr %2, align 8, !tbaa !8
  %3 = load i64, ptr %2, align 8, !tbaa !8
  %4 = xor i64 %3, -1
  %5 = load i64, ptr %2, align 8, !tbaa !8
  %6 = sub i64 %5, 1
  %7 = and i64 %4, %6
  %8 = call i64 @constant_time_msb_64(i64 noundef %7)
  ret i64 %8
}

; Function Attrs: nounwind uwtable
define void @ossl_curve448_scalar_mul(ptr noundef %0, ptr noundef %1, ptr noundef %2) #0 {
  %4 = alloca ptr, align 8
  %5 = alloca ptr, align 8
  %6 = alloca ptr, align 8
  store ptr %0, ptr %4, align 8, !tbaa !3
  store ptr %1, ptr %5, align 8, !tbaa !3
  store ptr %2, ptr %6, align 8, !tbaa !3
  %7 = load ptr, ptr %4, align 8, !tbaa !3
  %8 = load ptr, ptr %5, align 8, !tbaa !3
  %9 = load ptr, ptr %6, align 8, !tbaa !3
  call void @sc_montmul(ptr noundef %7, ptr noundef %8, ptr noundef %9)
  %10 = load ptr, ptr %4, align 8, !tbaa !3
  %11 = load ptr, ptr %4, align 8, !tbaa !3
  call void @sc_montmul(ptr noundef %10, ptr noundef %11, ptr noundef @sc_r2)
  ret void
}

; Function Attrs: inlinehint nounwind uwtable
define internal void @scalar_decode_short(ptr noundef %0, ptr noundef %1, i64 noundef %2) #2 {
  %4 = alloca ptr, align 8
  %5 = alloca ptr, align 8
  %6 = alloca i64, align 8
  %7 = alloca i64, align 8
  %8 = alloca i64, align 8
  %9 = alloca i64, align 8
  %10 = alloca i64, align 8
  store ptr %0, ptr %4, align 8, !tbaa !3
  store ptr %1, ptr %5, align 8, !tbaa !23
  store i64 %2, ptr %6, align 8, !tbaa !8
  call void @llvm.lifetime.start.p0(i64 8, ptr %7) #6
  call void @llvm.lifetime.start.p0(i64 8, ptr %8) #6
  call void @llvm.lifetime.start.p0(i64 8, ptr %9) #6
  store i64 0, ptr %9, align 8, !tbaa !8
  store i64 0, ptr %7, align 8, !tbaa !8
  br label %11

11:                                               ; preds = %46, %3
  %12 = load i64, ptr %7, align 8, !tbaa !8
  %13 = icmp ult i64 %12, 7
  br i1 %13, label %14, label %49

14:                                               ; preds = %11
  call void @llvm.lifetime.start.p0(i64 8, ptr %10) #6
  store i64 0, ptr %10, align 8, !tbaa !8
  store i64 0, ptr %8, align 8, !tbaa !8
  br label %15

15:                                               ; preds = %35, %14
  %16 = load i64, ptr %8, align 8, !tbaa !8
  %17 = icmp ult i64 %16, 8
  br i1 %17, label %18, label %22

18:                                               ; preds = %15
  %19 = load i64, ptr %9, align 8, !tbaa !8
  %20 = load i64, ptr %6, align 8, !tbaa !8
  %21 = icmp ult i64 %19, %20
  br label %22

22:                                               ; preds = %18, %15
  %23 = phi i1 [ false, %15 ], [ %21, %18 ]
  br i1 %23, label %24, label %40

24:                                               ; preds = %22
  %25 = load ptr, ptr %5, align 8, !tbaa !23
  %26 = load i64, ptr %9, align 8, !tbaa !8
  %27 = getelementptr inbounds nuw i8, ptr %25, i64 %26
  %28 = load i8, ptr %27, align 1, !tbaa !26
  %29 = zext i8 %28 to i64
  %30 = load i64, ptr %8, align 8, !tbaa !8
  %31 = mul i64 8, %30
  %32 = shl i64 %29, %31
  %33 = load i64, ptr %10, align 8, !tbaa !8
  %34 = or i64 %33, %32
  store i64 %34, ptr %10, align 8, !tbaa !8
  br label %35

35:                                               ; preds = %24
  %36 = load i64, ptr %8, align 8, !tbaa !8
  %37 = add i64 %36, 1
  store i64 %37, ptr %8, align 8, !tbaa !8
  %38 = load i64, ptr %9, align 8, !tbaa !8
  %39 = add i64 %38, 1
  store i64 %39, ptr %9, align 8, !tbaa !8
  br label %15, !llvm.loop !27

40:                                               ; preds = %22
  %41 = load i64, ptr %10, align 8, !tbaa !8
  %42 = load ptr, ptr %4, align 8, !tbaa !3
  %43 = getelementptr inbounds nuw %struct.curve448_scalar_s, ptr %42, i32 0, i32 0
  %44 = load i64, ptr %7, align 8, !tbaa !8
  %45 = getelementptr inbounds nuw [7 x i64], ptr %43, i64 0, i64 %44
  store i64 %41, ptr %45, align 8, !tbaa !8
  call void @llvm.lifetime.end.p0(i64 8, ptr %10) #6
  br label %46

46:                                               ; preds = %40
  %47 = load i64, ptr %7, align 8, !tbaa !8
  %48 = add i64 %47, 1
  store i64 %48, ptr %7, align 8, !tbaa !8
  br label %11, !llvm.loop !28

49:                                               ; preds = %11
  call void @llvm.lifetime.end.p0(i64 8, ptr %9) #6
  call void @llvm.lifetime.end.p0(i64 8, ptr %8) #6
  call void @llvm.lifetime.end.p0(i64 8, ptr %7) #6
  ret void
}

; Function Attrs: nounwind uwtable
define i32 @ossl_curve448_scalar_decode(ptr noundef %0, ptr noundef %1) #0 {
  %3 = alloca ptr, align 8
  %4 = alloca ptr, align 8
  %5 = alloca i32, align 4
  %6 = alloca i128, align 16
  store ptr %0, ptr %3, align 8, !tbaa !3
  store ptr %1, ptr %4, align 8, !tbaa !23
  call void @llvm.lifetime.start.p0(i64 4, ptr %5) #6
  call void @llvm.lifetime.start.p0(i64 16, ptr %6) #6
  store i128 0, ptr %6, align 16, !tbaa !14
  %7 = load ptr, ptr %3, align 8, !tbaa !3
  %8 = load ptr, ptr %4, align 8, !tbaa !23
  call void @scalar_decode_short(ptr noundef %7, ptr noundef %8, i64 noundef 56)
  store i32 0, ptr %5, align 4, !tbaa !10
  br label %9

9:                                                ; preds = %29, %2
  %10 = load i32, ptr %5, align 4, !tbaa !10
  %11 = icmp ult i32 %10, 7
  br i1 %11, label %12, label %32

12:                                               ; preds = %9
  %13 = load i128, ptr %6, align 16, !tbaa !14
  %14 = load ptr, ptr %3, align 8, !tbaa !3
  %15 = getelementptr inbounds nuw %struct.curve448_scalar_s, ptr %14, i32 0, i32 0
  %16 = load i32, ptr %5, align 4, !tbaa !10
  %17 = zext i32 %16 to i64
  %18 = getelementptr inbounds nuw [7 x i64], ptr %15, i64 0, i64 %17
  %19 = load i64, ptr %18, align 8, !tbaa !8
  %20 = zext i64 %19 to i128
  %21 = add nsw i128 %13, %20
  %22 = load i32, ptr %5, align 4, !tbaa !10
  %23 = zext i32 %22 to i64
  %24 = getelementptr inbounds nuw [7 x i64], ptr @sc_p, i64 0, i64 %23
  %25 = load i64, ptr %24, align 8, !tbaa !8
  %26 = zext i64 %25 to i128
  %27 = sub nsw i128 %21, %26
  %28 = ashr i128 %27, 64
  store i128 %28, ptr %6, align 16, !tbaa !14
  br label %29

29:                                               ; preds = %12
  %30 = load i32, ptr %5, align 4, !tbaa !10
  %31 = add i32 %30, 1
  store i32 %31, ptr %5, align 4, !tbaa !10
  br label %9, !llvm.loop !25

32:                                               ; preds = %9
  %33 = load ptr, ptr %3, align 8, !tbaa !3
  %34 = load ptr, ptr %3, align 8, !tbaa !3
  call void @ossl_curve448_scalar_mul(ptr noundef %33, ptr noundef %34, ptr noundef @ossl_curve448_scalar_one)
  %35 = load i128, ptr %6, align 16, !tbaa !14
  %36 = trunc i128 %35 to i32
  %37 = zext i32 %36 to i64
  %38 = call i64 @constant_time_is_zero_64(i64 noundef %37)
  %39 = xor i64 %38, -1
  %40 = call i32 @c448_succeed_if(i64 noundef %39)
  call void @llvm.lifetime.end.p0(i64 16, ptr %6) #6
  call void @llvm.lifetime.end.p0(i64 4, ptr %5) #6
  ret i32 %40
}