; Function Attrs: nofree norecurse nosync nounwind memory(argmem: readwrite) uwtable
define range(i32 -1, 1) i32 @ossl_curve448_scalar_decode(ptr noundef captures(none) %0, ptr noundef readonly captures(none) %1) local_unnamed_addr #0 {
  br label %.preheader.i

.preheader.i:                                     ; preds = %._crit_edge.i, %2
  %.01321.i = phi i64 [ 0, %2 ], [ %.1.lcssa.i, %._crit_edge.i ]
  %.01520.i = phi i64 [ 0, %2 ], [ %16, %._crit_edge.i ]
  %3 = icmp ult i64 %.01321.i, 56
  br i1 %3, label %.lr.ph.i, label %._crit_edge.i

.lr.ph.i:                                         ; preds = %.preheader.i, %.lr.ph.i
  %.018.i = phi i64 [ %9, %.lr.ph.i ], [ 0, %.preheader.i ]
  %.117.i = phi i64 [ %11, %.lr.ph.i ], [ %.01321.i, %.preheader.i ]
  %.01416.i = phi i64 [ %10, %.lr.ph.i ], [ 0, %.preheader.i ]
  %4 = getelementptr inbounds nuw i8, ptr %1, i64 %.117.i
  %5 = load i8, ptr %4, align 1, !tbaa !14
  %6 = zext i8 %5 to i64
  %7 = shl nuw nsw i64 %.01416.i, 3
  %8 = shl nuw i64 %6, %7
  %9 = or i64 %8, %.018.i
  %10 = add nuw nsw i64 %.01416.i, 1
  %11 = add nuw nsw i64 %.117.i, 1
  %12 = icmp samesign ult i64 %.01416.i, 7
  %13 = icmp samesign ult i64 %.117.i, 55
  %14 = and i1 %13, %12
  br i1 %14, label %.lr.ph.i, label %._crit_edge.i, !llvm.loop !15

._crit_edge.i:                                    ; preds = %.lr.ph.i, %.preheader.i
  %.1.lcssa.i = phi i64 [ %.01321.i, %.preheader.i ], [ %11, %.lr.ph.i ]
  %.0.lcssa.i = phi i64 [ 0, %.preheader.i ], [ %9, %.lr.ph.i ]
  %15 = getelementptr inbounds nuw [7 x i64], ptr %0, i64 0, i64 %.01520.i
  store i64 %.0.lcssa.i, ptr %15, align 8, !tbaa !3
  %16 = add nuw nsw i64 %.01520.i, 1
  %exitcond.not.i = icmp eq i64 %16, 7
  br i1 %exitcond.not.i, label %scalar_decode_short.exit, label %.preheader.i, !llvm.loop !16

scalar_decode_short.exit:                         ; preds = %._crit_edge.i, %scalar_decode_short.exit
  %indvars.iv = phi i64 [ %indvars.iv.next, %scalar_decode_short.exit ], [ 0, %._crit_edge.i ]
  %.013 = phi i128 [ %25, %scalar_decode_short.exit ], [ 0, %._crit_edge.i ]
  %17 = getelementptr inbounds nuw [7 x i64], ptr %0, i64 0, i64 %indvars.iv
  %18 = load i64, ptr %17, align 8, !tbaa !3
  %19 = zext i64 %18 to i128
  %20 = add nsw i128 %.013, %19
  %21 = getelementptr inbounds nuw [7 x i64], ptr @sc_p, i64 0, i64 %indvars.iv
  %22 = load i64, ptr %21, align 8, !tbaa !3
  %23 = zext i64 %22 to i128
  %24 = sub nsw i128 %20, %23
  %25 = ashr i128 %24, 64
  %indvars.iv.next = add nuw nsw i64 %indvars.iv, 1
  %exitcond.not = icmp eq i64 %indvars.iv.next, 7
  br i1 %exitcond.not, label %26, label %scalar_decode_short.exit, !llvm.loop !17

26:                                               ; preds = %scalar_decode_short.exit
  tail call fastcc void @sc_montmul(ptr noundef nonnull %0, ptr noundef nonnull readonly %0, ptr noundef nonnull @ossl_curve448_scalar_one)
  tail call fastcc void @sc_montmul(ptr noundef nonnull %0, ptr noundef nonnull %0, ptr noundef nonnull @sc_r2)
  %27 = and i128 %24, 79228162495817593519834398720
  %isnotneg = icmp ne i128 %27, 0
  %28 = sext i1 %isnotneg to i32
  ret i32 %28
}